; Function Attrs: nounwind sspstrong uwtable
define internal i32 @is_code_ctype(i32 noundef %0, i32 noundef %1, ptr readnone captures(none) %2) #0 {
  %4 = icmp ult i32 %1, 15
  br i1 %4, label %5, label %18

5:                                                ; preds = %3
  %6 = icmp ult i32 %0, 128
  br i1 %6, label %7, label %14

7:                                                ; preds = %5
  %8 = zext nneg i32 %0 to i64
  %9 = getelementptr inbounds nuw [0 x i16], ptr @OnigEncAsciiCtypeTable, i64 0, i64 %8
  %10 = load i16, ptr %9, align 2, !tbaa !22
  %11 = zext i16 %10 to i32
  %12 = lshr i32 %11, %1
  %13 = and i32 %12, 1
  br label %26

14:                                               ; preds = %5
  %15 = icmp eq i32 %1, 12
  %16 = and i32 %1, 13
  %17 = icmp eq i32 %16, 5
  %or.cond3 = or i1 %15, %17
  %. = zext i1 %or.cond3 to i32
  br label %26

18:                                               ; preds = %3
  %19 = add i32 %1, -15
  %20 = icmp ugt i32 %19, 5
  br i1 %20, label %26, label %21

21:                                               ; preds = %18
  %22 = zext nneg i32 %19 to i64
  %23 = getelementptr inbounds nuw [6 x ptr], ptr @PropertyList, i64 0, i64 %22
  %24 = load ptr, ptr %23, align 8, !tbaa !24
  %25 = tail call i32 @onig_is_in_code_range(ptr noundef %24, i32 noundef %0) #7
  br label %26

26:                                               ; preds = %18, %14, %21, %7
  %.0 = phi i32 [ %13, %7 ], [ %25, %21 ], [ %., %14 ], [ -6, %18 ]
  ret i32 %.0
}